target datalayout = "e-m:e-p270:32:32-p271:32:32-p272:64:64-i64:64-i128:128-f80:128-n8:16:32:64-S128"
target triple = "x86_64-pc-linux-gnu"

@.str.10 = private unnamed_addr constant [37 x i8] c"Original = %6d.  SuppSize = %3d.    \00", align 1
@.str.11 = private unnamed_addr constant [34 x i8] c"Result   = %6d.  SuppSize = %3d.\0A\00", align 1

; Function Attrs: nounwind uwtable
define void @Llb_NonlinTrySubsetting(ptr noundef %0, ptr noundef %1) #0 {
  %3 = alloca ptr, align 8
  %4 = alloca ptr, align 8
  %5 = alloca ptr, align 8
  store ptr %0, ptr %3, align 8, !tbaa !3
  store ptr %1, ptr %4, align 8, !tbaa !8
  call void @llvm.lifetime.start.p0(i64 8, ptr %5) #12
  %6 = load ptr, ptr %4, align 8, !tbaa !8
  %7 = call i32 @Cudd_DagSize(ptr noundef %6)
  %8 = load ptr, ptr %3, align 8, !tbaa !3
  %9 = load ptr, ptr %4, align 8, !tbaa !8
  %10 = call i32 @Cudd_SupportSize(ptr noundef %8, ptr noundef %9)
  %11 = call i32 (ptr, ...) @printf(ptr noundef @.str.10, i32 noundef %7, i32 noundef %10)
  %12 = load ptr, ptr %3, align 8, !tbaa !3
  %13 = load ptr, ptr %4, align 8, !tbaa !8
  %14 = load ptr, ptr %3, align 8, !tbaa !3
  %15 = load ptr, ptr %4, align 8, !tbaa !8
  %16 = call i32 @Cudd_SupportSize(ptr noundef %14, ptr noundef %15)
  %17 = call ptr @Cudd_SubsetHeavyBranch(ptr noundef %12, ptr noundef %13, i32 noundef %16, i32 noundef 1000)
  store ptr %17, ptr %5, align 8, !tbaa !8
  %18 = load ptr, ptr %5, align 8, !tbaa !8
  call void @Cudd_Ref(ptr noundef %18)
  %19 = load ptr, ptr %5, align 8, !tbaa !8
  %20 = call i32 @Cudd_DagSize(ptr noundef %19)
  %21 = load ptr, ptr %3, align 8, !tbaa !3
  %22 = load ptr, ptr %5, align 8, !tbaa !8
  %23 = call i32 @Cudd_SupportSize(ptr noundef %21, ptr noundef %22)
  %24 = call i32 (ptr, ...) @printf(ptr noundef @.str.11, i32 noundef %20, i32 noundef %23)
  %25 = load ptr, ptr %3, align 8, !tbaa !3
  %26 = load ptr, ptr %5, align 8, !tbaa !8
  call void @Cudd_RecursiveDeref(ptr noundef %25, ptr noundef %26)
  call void @llvm.lifetime.end.p0(i64 8, ptr %5) #12
  ret void
}