; Function Attrs: nounwind uwtable
define void @Llb_NonlinTrySubsetting(ptr noundef %0, ptr noundef %1) local_unnamed_addr #0 {
  %3 = tail call i32 @Cudd_DagSize(ptr noundef %1) #19
  %4 = tail call i32 @Cudd_SupportSize(ptr noundef %0, ptr noundef %1) #19
  %5 = tail call i32 (ptr, ...) @printf(ptr noundef nonnull dereferenceable(1) @.str.10, i32 noundef %3, i32 noundef %4)
  %6 = tail call i32 @Cudd_SupportSize(ptr noundef %0, ptr noundef %1) #19
  %7 = tail call ptr @Cudd_SubsetHeavyBranch(ptr noundef %0, ptr noundef %1, i32 noundef %6, i32 noundef 1000) #19
  tail call void @Cudd_Ref(ptr noundef %7) #19
  %8 = tail call i32 @Cudd_DagSize(ptr noundef %7) #19
  %9 = tail call i32 @Cudd_SupportSize(ptr noundef %0, ptr noundef %7) #19
  %10 = tail call i32 (ptr, ...) @printf(ptr noundef nonnull dereferenceable(1) @.str.11, i32 noundef %8, i32 noundef %9)
  tail call void @Cudd_RecursiveDeref(ptr noundef %0, ptr noundef %7) #19
  ret void
}